target datalayout = "e-m:e-p270:32:32-p271:32:32-p272:64:64-i64:64-i128:128-f80:128-n8:16:32:64-S128"
target triple = "x86_64-pc-linux-gnu"

; Function Attrs: mustprogress uwtable
define hidden noundef ptr @_ZN4cvc58internal4prop16SatSolverFactory18createCDCLTMinisatERNS0_3EnvERNS0_18StatisticsRegistryE(ptr noundef nonnull align 8 dereferenceable(696) %0, ptr noundef nonnull align 8 dereferenceable(58) %1) #6 align 2 personality ptr @__gxx_personality_v0 {
  %3 = alloca ptr, align 8
  %4 = alloca ptr, align 8
  %5 = alloca ptr, align 8
  %6 = alloca i32, align 4
  store ptr %0, ptr %3, align 8, !tbaa !16
  store ptr %1, ptr %4, align 8, !tbaa !18
  %7 = call noalias noundef nonnull ptr @_Znwm(i64 noundef 168) #14
  %8 = load ptr, ptr %3, align 8, !tbaa !16
  %9 = load ptr, ptr %4, align 8, !tbaa !18
  invoke void @_ZN4cvc58internal4prop16MinisatSatSolverC1ERNS0_3EnvERNS0_18StatisticsRegistryE(ptr noundef nonnull align 8 dereferenceable(168) %7, ptr noundef nonnull align 8 dereferenceable(696) %8, ptr noundef nonnull align 8 dereferenceable(58) %9)
          to label %10 unwind label %11

10:                                               ; preds = %2
  ret ptr %7

11:                                               ; preds = %2
  %12 = landingpad { ptr, i32 }
          cleanup
  %13 = extractvalue { ptr, i32 } %12, 0
  store ptr %13, ptr %5, align 8
  %14 = extractvalue { ptr, i32 } %12, 1
  store i32 %14, ptr %6, align 4
  call void @_ZdlPvm(ptr noundef %7, i64 noundef 168) #15
  br label %15

15:                                               ; preds = %11
  %16 = load ptr, ptr %5, align 8
  %17 = load i32, ptr %6, align 4
  %18 = insertvalue { ptr, i32 } poison, ptr %16, 0
  %19 = insertvalue { ptr, i32 } %18, i32 %17, 1
  resume { ptr, i32 } %19
}